target datalayout = "e-m:e-p270:32:32-p271:32:32-p272:64:64-i64:64-i128:128-f80:128-n8:16:32:64-S128"
target triple = "x86_64-pc-linux-gnu"

%union.pthread_mutex_t = type { %struct.__pthread_mutex_s }
%struct.__pthread_mutex_s = type { i32, i32, i32, i32, i32, i16, i16, %struct.__pthread_internal_list }
%struct.__pthread_internal_list = type { ptr, ptr }
%struct.settings = type { i64, i32, i32, i32, ptr, i32, i32, i32, ptr, ptr, i32, double, i32, i32, i32, i8, i32, i32, i8, i32, i32, i32, i32, i32, i32, i8, i8, i8, i8, i8, i8, i8, i32, i32, double, double, i32, i32, i8, i32, i8, i8, ptr, i32, i32, i32, i32, double, double, i32, i8, i32, i32, i32, i32, i32, i8, i8, i8, ptr, i32, i32, i32, i32, i32, i32, i32, i32, i32, i32, double, i8, i32, i32, ptr, i32 }

@settings = external global %struct.settings, align 8
@stderr = external global ptr, align 8
@lru_maintainer_lock = internal global %union.pthread_mutex_t zeroinitializer, align 8
@do_run_lru_maintainer_thread = internal global i32 0, align 4
@lru_maintainer_tid = internal global i64 0, align 8
@.str.46 = private unnamed_addr constant [42 x i8] c"Failed to stop LRU maintainer thread: %s\0A\00", align 1

; Function Attrs: nounwind uwtable
define dso_local i32 @stop_lru_maintainer_thread() #0 {
  %1 = alloca i32, align 4
  %2 = alloca i32, align 4
  %3 = alloca i32, align 4
  call void @llvm.lifetime.start.p0(i64 4, ptr %2) #9
  %4 = call i32 @pthread_mutex_lock(ptr noundef @lru_maintainer_lock) #9
  store volatile i32 0, ptr @do_run_lru_maintainer_thread, align 4, !tbaa !4
  %5 = call i32 @pthread_mutex_unlock(ptr noundef @lru_maintainer_lock) #9
  %6 = load i64, ptr @lru_maintainer_tid, align 8, !tbaa !10
  %7 = call i32 @pthread_join(i64 noundef %6, ptr noundef null)
  store i32 %7, ptr %2, align 4, !tbaa !4
  %8 = icmp ne i32 %7, 0
  br i1 %8, label %9, label %14

9:                                                ; preds = %0
  %10 = load ptr, ptr @stderr, align 8, !tbaa !109
  %11 = load i32, ptr %2, align 4, !tbaa !4
  %12 = call ptr @strerror(i32 noundef %11) #9
  %13 = call i32 (ptr, ptr, ...) @fprintf(ptr noundef %10, ptr noundef @.str.46, ptr noundef %12) #9
  store i32 -1, ptr %1, align 4
  store i32 1, ptr %3, align 4
  br label %15

14:                                               ; preds = %0
  store i8 0, ptr getelementptr inbounds nuw (%struct.settings, ptr @settings, i32 0, i32 28), align 1, !tbaa !91
  store i32 0, ptr %1, align 4
  store i32 1, ptr %3, align 4
  br label %15

15:                                               ; preds = %14, %9
  call void @llvm.lifetime.end.p0(i64 4, ptr %2) #9
  %16 = load i32, ptr %1, align 4
  ret i32 %16
}