; Function Attrs: nounwind uwtable
define dso_local range(i32 -1, 1) i32 @stop_lru_maintainer_thread() local_unnamed_addr #0 {
  %1 = tail call i32 @pthread_mutex_lock(ptr noundef nonnull @lru_maintainer_lock) #19
  store volatile i32 0, ptr @do_run_lru_maintainer_thread, align 4, !tbaa !22
  %2 = tail call i32 @pthread_mutex_unlock(ptr noundef nonnull @lru_maintainer_lock) #19
  %3 = load i64, ptr @lru_maintainer_tid, align 8, !tbaa !14
  %4 = tail call i32 @pthread_join(i64 noundef %3, ptr noundef null) #19
  %.not = icmp eq i32 %4, 0
  br i1 %.not, label %9, label %5

5:                                                ; preds = %0
  %6 = load ptr, ptr @stderr, align 8, !tbaa !95
  %7 = tail call ptr @strerror(i32 noundef %4) #19
  %8 = tail call i32 (ptr, ptr, ...) @fprintf(ptr noundef %6, ptr noundef nonnull @.str.46, ptr noundef %7) #23
  br label %10

9:                                                ; preds = %0
  store i8 0, ptr getelementptr inbounds nuw (i8, ptr @settings, i64 135), align 1, !tbaa !84
  br label %10

10:                                               ; preds = %9, %5
  %.0 = phi i32 [ -1, %5 ], [ 0, %9 ]
  ret i32 %.0
}